; Function Attrs: nounwind uwtable
define internal i32 @my_ExternalEntityRefHandler(ptr noundef readonly captures(none) %0, ptr noundef %1, ptr noundef %2, ptr noundef %3, ptr noundef %4) #0 {
  %6 = load ptr, ptr %0, align 8, !tbaa !61
  %7 = getelementptr i8, ptr %6, i64 72
  %.val = load ptr, ptr %7, align 8, !tbaa !36
  %8 = getelementptr i8, ptr %.val, i64 112
  %9 = load ptr, ptr %8, align 8, !tbaa !14
  %.not45 = icmp eq ptr %9, null
  br i1 %.not45, label %Py_DECREF.exit, label %10

10:                                               ; preds = %5
  %11 = tail call ptr @PyErr_Occurred() #8
  %.not30 = icmp eq ptr %11, null
  br i1 %.not30, label %12, label %Py_DECREF.exit

12:                                               ; preds = %10
  %13 = getelementptr inbounds nuw i8, ptr %6, i64 40
  %14 = load ptr, ptr %13, align 8, !tbaa !29
  %15 = icmp eq ptr %14, null
  br i1 %15, label %flush_character_buffer.exit.thread, label %16

16:                                               ; preds = %12
  %17 = getelementptr inbounds nuw i8, ptr %6, i64 52
  %18 = load i32, ptr %17, align 4, !tbaa !35
  %19 = icmp eq i32 %18, 0
  br i1 %19, label %flush_character_buffer.exit.thread, label %flush_character_buffer.exit

flush_character_buffer.exit:                      ; preds = %16
  %20 = tail call fastcc i32 @call_character_handler(ptr noundef nonnull %6, ptr noundef nonnull %14, i32 noundef %18)
  store i32 0, ptr %17, align 4, !tbaa !35
  %21 = icmp slt i32 %20, 0
  br i1 %21, label %Py_DECREF.exit, label %flush_character_buffer.exit.thread

flush_character_buffer.exit.thread:               ; preds = %12, %16, %flush_character_buffer.exit
  %22 = tail call fastcc ptr @string_intern(ptr noundef nonnull %6, ptr noundef %2)
  %23 = tail call fastcc ptr @string_intern(ptr noundef nonnull %6, ptr noundef %3)
  %24 = tail call fastcc ptr @string_intern(ptr noundef nonnull %6, ptr noundef %4)
  %25 = tail call ptr (ptr, ...) @Py_BuildValue(ptr noundef nonnull @.str.61, ptr noundef nonnull @conv_string_to_unicode, ptr noundef %1, ptr noundef %22, ptr noundef %23, ptr noundef %24) #8
  %.not31 = icmp eq ptr %25, null
  br i1 %.not31, label %26, label %49

26:                                               ; preds = %flush_character_buffer.exit.thread
  %27 = load ptr, ptr @handler_info, align 16, !tbaa !40
  %.not15.i.i = icmp eq ptr %27, null
  br i1 %.not15.i.i, label %flag_error.exit, label %.lr.ph.i.i

.lr.ph.i.i:                                       ; preds = %26
  %28 = getelementptr inbounds nuw i8, ptr %6, i64 16
  br label %.lr.ph.split.us.i.i

.lr.ph.split.us.i.i:                              ; preds = %Py_DECREF.exit.us.i.i, %.lr.ph.i.i
  %29 = phi ptr [ %45, %Py_DECREF.exit.us.i.i ], [ @handler_info, %.lr.ph.i.i ]
  %30 = phi i64 [ %44, %Py_DECREF.exit.us.i.i ], [ 0, %.lr.ph.i.i ]
  %.016.us.i.i = phi i32 [ %43, %Py_DECREF.exit.us.i.i ], [ 0, %.lr.ph.i.i ]
  %31 = load ptr, ptr %7, align 8, !tbaa !36
  %32 = getelementptr ptr, ptr %31, i64 %30
  %33 = load ptr, ptr %32, align 8, !tbaa !14
  %.not14.us.i.i = icmp eq ptr %33, null
  br i1 %.not14.us.i.i, label %Py_DECREF.exit.us.i.i, label %34

34:                                               ; preds = %.lr.ph.split.us.i.i
  store ptr null, ptr %32, align 8, !tbaa !14
  %35 = load i32, ptr %33, align 8, !tbaa !13
  %.not.i.us.i.i = icmp sgt i32 %35, -1
  br i1 %.not.i.us.i.i, label %36, label %Py_DECREF.exit.us.i.i

36:                                               ; preds = %34
  %37 = add nsw i32 %35, -1
  store i32 %37, ptr %33, align 8, !tbaa !13
  %38 = icmp eq i32 %37, 0
  br i1 %38, label %39, label %Py_DECREF.exit.us.i.i

39:                                               ; preds = %36
  tail call void @_Py_Dealloc(ptr noundef nonnull %33) #8
  br label %Py_DECREF.exit.us.i.i

Py_DECREF.exit.us.i.i:                            ; preds = %39, %36, %34, %.lr.ph.split.us.i.i
  %40 = getelementptr inbounds nuw i8, ptr %29, i64 8
  %41 = load ptr, ptr %40, align 8, !tbaa !56
  %42 = load ptr, ptr %28, align 8, !tbaa !39
  tail call void %41(ptr noundef %42, ptr noundef null) #8
  %43 = add i32 %.016.us.i.i, 1
  %44 = sext i32 %43 to i64
  %45 = getelementptr [64 x %struct.HandlerInfo], ptr @handler_info, i64 0, i64 %44
  %46 = load ptr, ptr %45, align 16, !tbaa !40
  %.not.us.i.i = icmp eq ptr %46, null
  br i1 %.not.us.i.i, label %flag_error.exit, label %.lr.ph.split.us.i.i, !llvm.loop !45

flag_error.exit:                                  ; preds = %Py_DECREF.exit.us.i.i, %26
  %47 = getelementptr inbounds nuw i8, ptr %6, i64 16
  %48 = load ptr, ptr %47, align 8, !tbaa !39
  tail call void @PyExpat_XML_SetExternalEntityRefHandler(ptr noundef %48, ptr noundef nonnull @error_external_entity_ref_handler) #8
  br label %Py_DECREF.exit

49:                                               ; preds = %flush_character_buffer.exit.thread
  %50 = getelementptr inbounds nuw i8, ptr %6, i64 32
  store i32 1, ptr %50, align 8, !tbaa !60
  %51 = load ptr, ptr %7, align 8, !tbaa !36
  %52 = getelementptr i8, ptr %51, i64 112
  %53 = load ptr, ptr %52, align 8, !tbaa !14
  %54 = tail call ptr @PyObject_Call(ptr noundef %53, ptr noundef nonnull %25, ptr noundef null) #8
  %55 = icmp eq ptr %54, null
  br i1 %55, label %56, label %call_with_frame.exit

56:                                               ; preds = %49
  tail call void @_PyTraceback_Add(ptr noundef nonnull @.str.62, ptr noundef nonnull @.str.43, i32 noundef 675) #8
  %57 = getelementptr inbounds nuw i8, ptr %6, i64 16
  %58 = load ptr, ptr %57, align 8, !tbaa !39
  %59 = tail call i32 @PyExpat_XML_StopParser(ptr noundef %58, i8 noundef zeroext 0) #8
  br label %call_with_frame.exit

call_with_frame.exit:                             ; preds = %49, %56
  store i32 0, ptr %50, align 8, !tbaa !60
  %60 = load i32, ptr %25, align 8, !tbaa !13
  %.not.i32 = icmp sgt i32 %60, -1
  br i1 %.not.i32, label %61, label %Py_DECREF.exit33

61:                                               ; preds = %call_with_frame.exit
  %62 = add nsw i32 %60, -1
  store i32 %62, ptr %25, align 8, !tbaa !13
  %63 = icmp eq i32 %62, 0
  br i1 %63, label %64, label %Py_DECREF.exit33

64:                                               ; preds = %61
  tail call void @_Py_Dealloc(ptr noundef nonnull %25) #8
  br label %Py_DECREF.exit33

Py_DECREF.exit33:                                 ; preds = %call_with_frame.exit, %61, %64
  br i1 %55, label %65, label %88

65:                                               ; preds = %Py_DECREF.exit33
  %66 = load ptr, ptr @handler_info, align 16, !tbaa !40
  %.not15.i.i35 = icmp eq ptr %66, null
  br i1 %.not15.i.i35, label %flag_error.exit43, label %.lr.ph.i.i36

.lr.ph.i.i36:                                     ; preds = %65
  %67 = getelementptr inbounds nuw i8, ptr %6, i64 16
  br label %.lr.ph.split.us.i.i37

.lr.ph.split.us.i.i37:                            ; preds = %Py_DECREF.exit.us.i.i41, %.lr.ph.i.i36
  %68 = phi ptr [ %84, %Py_DECREF.exit.us.i.i41 ], [ @handler_info, %.lr.ph.i.i36 ]
  %69 = phi i64 [ %83, %Py_DECREF.exit.us.i.i41 ], [ 0, %.lr.ph.i.i36 ]
  %.016.us.i.i38 = phi i32 [ %82, %Py_DECREF.exit.us.i.i41 ], [ 0, %.lr.ph.i.i36 ]
  %70 = load ptr, ptr %7, align 8, !tbaa !36
  %71 = getelementptr ptr, ptr %70, i64 %69
  %72 = load ptr, ptr %71, align 8, !tbaa !14
  %.not14.us.i.i39 = icmp eq ptr %72, null
  br i1 %.not14.us.i.i39, label %Py_DECREF.exit.us.i.i41, label %73

73:                                               ; preds = %.lr.ph.split.us.i.i37
  store ptr null, ptr %71, align 8, !tbaa !14
  %74 = load i32, ptr %72, align 8, !tbaa !13
  %.not.i.us.i.i40 = icmp sgt i32 %74, -1
  br i1 %.not.i.us.i.i40, label %75, label %Py_DECREF.exit.us.i.i41

75:                                               ; preds = %73
  %76 = add nsw i32 %74, -1
  store i32 %76, ptr %72, align 8, !tbaa !13
  %77 = icmp eq i32 %76, 0
  br i1 %77, label %78, label %Py_DECREF.exit.us.i.i41

78:                                               ; preds = %75
  tail call void @_Py_Dealloc(ptr noundef nonnull %72) #8
  br label %Py_DECREF.exit.us.i.i41

Py_DECREF.exit.us.i.i41:                          ; preds = %78, %75, %73, %.lr.ph.split.us.i.i37
  %79 = getelementptr inbounds nuw i8, ptr %68, i64 8
  %80 = load ptr, ptr %79, align 8, !tbaa !56
  %81 = load ptr, ptr %67, align 8, !tbaa !39
  tail call void %80(ptr noundef %81, ptr noundef null) #8
  %82 = add i32 %.016.us.i.i38, 1
  %83 = sext i32 %82 to i64
  %84 = getelementptr [64 x %struct.HandlerInfo], ptr @handler_info, i64 0, i64 %83
  %85 = load ptr, ptr %84, align 16, !tbaa !40
  %.not.us.i.i42 = icmp eq ptr %85, null
  br i1 %.not.us.i.i42, label %flag_error.exit43, label %.lr.ph.split.us.i.i37, !llvm.loop !45

flag_error.exit43:                                ; preds = %Py_DECREF.exit.us.i.i41, %65
  %86 = getelementptr inbounds nuw i8, ptr %6, i64 16
  %87 = load ptr, ptr %86, align 8, !tbaa !39
  tail call void @PyExpat_XML_SetExternalEntityRefHandler(ptr noundef %87, ptr noundef nonnull @error_external_entity_ref_handler) #8
  br label %Py_DECREF.exit

88:                                               ; preds = %Py_DECREF.exit33
  %89 = tail call i64 @PyLong_AsLong(ptr noundef nonnull %54) #8
  %90 = trunc i64 %89 to i32
  %91 = load i32, ptr %54, align 8, !tbaa !13
  %.not.i = icmp sgt i32 %91, -1
  br i1 %.not.i, label %92, label %Py_DECREF.exit

92:                                               ; preds = %88
  %93 = add nsw i32 %91, -1
  store i32 %93, ptr %54, align 8, !tbaa !13
  %94 = icmp eq i32 %93, 0
  br i1 %94, label %95, label %Py_DECREF.exit

95:                                               ; preds = %92
  tail call void @_Py_Dealloc(ptr noundef nonnull %54) #8
  br label %Py_DECREF.exit

Py_DECREF.exit:                                   ; preds = %95, %92, %88, %5, %flush_character_buffer.exit, %10, %flag_error.exit43, %flag_error.exit
  %.027 = phi i32 [ 0, %flag_error.exit43 ], [ 0, %flag_error.exit ], [ 0, %10 ], [ 0, %flush_character_buffer.exit ], [ 0, %5 ], [ %90, %88 ], [ %90, %92 ], [ %90, %95 ]
  ret i32 %.027
}